; Function Attrs: nounwind uwtable
define dso_local noundef i32 @_ZThn56_N4node6crypto7TLSWrap5GetFDEv(ptr nocapture noundef readonly %this) unnamed_addr #6 align 2 {
entry:
  %stream_.i.i.i = getelementptr inbounds i8, ptr %this, i64 72
  %0 = load ptr, ptr %stream_.i.i.i, align 8
  %vtable.i = load ptr, ptr %0, align 8
  %vfn.i = getelementptr inbounds i8, ptr %vtable.i, i64 104
  %1 = load ptr, ptr %vfn.i, align 8
  %call2.i = tail call noundef i32 %1(ptr noundef nonnull align 8 dereferenceable(64) %0) #23
  ret i32 %call2.i
}